; Function Attrs: nounwind uwtable
define dso_local range(i32 -3, -4) i32 @git_inflate(ptr noundef initializes((0, 12), (16, 36), (40, 48)) %0, i32 noundef %1) local_unnamed_addr #0 {
  %3 = getelementptr inbounds nuw i8, ptr %0, i64 144
  %4 = getelementptr inbounds nuw i8, ptr %0, i64 152
  %5 = getelementptr inbounds nuw i8, ptr %0, i64 24
  %6 = getelementptr inbounds nuw i8, ptr %0, i64 128
  %7 = getelementptr inbounds nuw i8, ptr %0, i64 16
  %8 = getelementptr inbounds nuw i8, ptr %0, i64 136
  %9 = getelementptr inbounds nuw i8, ptr %0, i64 40
  %10 = getelementptr inbounds nuw i8, ptr %0, i64 112
  %11 = getelementptr inbounds nuw i8, ptr %0, i64 8
  %12 = getelementptr inbounds nuw i8, ptr %0, i64 120
  %13 = getelementptr inbounds nuw i8, ptr %0, i64 32
  %.pre = load ptr, ptr %3, align 8, !tbaa !4
  %.pre48 = load ptr, ptr %4, align 8, !tbaa !15
  %.pre49 = load i64, ptr %6, align 8, !tbaa !17
  %.pre50 = load i64, ptr %8, align 8, !tbaa !19
  %.pre51 = load i64, ptr %10, align 8, !tbaa !21
  %.pre52 = load i64, ptr %12, align 8, !tbaa !23
  br label %.backedge

.backedge:                                        ; preds = %.backedge.backedge, %2
  %14 = phi i64 [ %.pre52, %2 ], [ %51, %.backedge.backedge ]
  %15 = phi i64 [ %.pre51, %2 ], [ %49, %.backedge.backedge ]
  %16 = phi i64 [ %.pre50, %2 ], [ %39, %.backedge.backedge ]
  %17 = phi i64 [ %.pre49, %2 ], [ %44, %.backedge.backedge ]
  %18 = phi ptr [ %.pre48, %2 ], [ %34, %.backedge.backedge ]
  %19 = phi ptr [ %.pre, %2 ], [ %29, %.backedge.backedge ]
  store ptr %19, ptr %0, align 8, !tbaa !14
  store ptr %18, ptr %5, align 8, !tbaa !16
  store i64 %17, ptr %7, align 8, !tbaa !18
  store i64 %16, ptr %9, align 8, !tbaa !20
  %20 = tail call i64 @llvm.umin.i64(i64 %15, i64 1073741824)
  %21 = trunc nuw nsw i64 %20 to i32
  store i32 %21, ptr %11, align 8, !tbaa !22
  %22 = tail call i64 @llvm.umin.i64(i64 %14, i64 1073741824)
  %23 = trunc nuw nsw i64 %22 to i32
  store i32 %23, ptr %13, align 8, !tbaa !24
  %.not = icmp ult i64 %15, 1073741825
  %24 = select i1 %.not, i32 %1, i32 0
  %25 = tail call i32 @inflate(ptr noundef nonnull %0, i32 noundef %24) #6
  %26 = icmp eq i32 %25, -4
  br i1 %26, label %27, label %28

27:                                               ; preds = %.backedge
  tail call void (ptr, ...) @die(ptr noundef nonnull @.str.5) #7
  unreachable

28:                                               ; preds = %.backedge
  %29 = load ptr, ptr %0, align 8, !tbaa !14
  %30 = load ptr, ptr %3, align 8, !tbaa !4
  %31 = ptrtoint ptr %29 to i64
  %32 = ptrtoint ptr %30 to i64
  %33 = sub i64 %31, %32
  %34 = load ptr, ptr %5, align 8, !tbaa !16
  %35 = load ptr, ptr %4, align 8, !tbaa !15
  %36 = ptrtoint ptr %34 to i64
  %37 = ptrtoint ptr %35 to i64
  %38 = sub i64 %36, %37
  %39 = load i64, ptr %9, align 8, !tbaa !20
  %40 = load i64, ptr %8, align 8, !tbaa !19
  %41 = add i64 %40, %38
  %.not.i = icmp eq i64 %39, %41
  br i1 %.not.i, label %43, label %42

42:                                               ; preds = %28
  tail call void (ptr, i32, ptr, ...) @BUG_fl(ptr noundef nonnull @.str.11, i32 noundef 56, ptr noundef nonnull @.str.12) #7
  unreachable

43:                                               ; preds = %28
  %44 = load i64, ptr %7, align 8, !tbaa !18
  %45 = load i64, ptr %6, align 8, !tbaa !17
  %46 = add i64 %45, %33
  %.not21.i = icmp eq i64 %44, %46
  br i1 %.not21.i, label %zlib_post_call.exit, label %47

47:                                               ; preds = %43
  tail call void (ptr, i32, ptr, ...) @BUG_fl(ptr noundef nonnull @.str.11, i32 noundef 58, ptr noundef nonnull @.str.13) #7
  unreachable

zlib_post_call.exit:                              ; preds = %43
  store i64 %39, ptr %8, align 8, !tbaa !19
  store i64 %44, ptr %6, align 8, !tbaa !17
  store ptr %29, ptr %3, align 8, !tbaa !4
  store ptr %34, ptr %4, align 8, !tbaa !15
  %48 = load i64, ptr %10, align 8, !tbaa !21
  %49 = sub i64 %48, %33
  store i64 %49, ptr %10, align 8, !tbaa !21
  %50 = load i64, ptr %12, align 8, !tbaa !23
  %51 = sub i64 %50, %38
  store i64 %51, ptr %12, align 8, !tbaa !23
  %.not19 = icmp eq i64 %50, %38
  br i1 %.not19, label %55, label %52

52:                                               ; preds = %zlib_post_call.exit
  %53 = load i32, ptr %13, align 8, !tbaa !24
  %.not20 = icmp eq i32 %53, 0
  br i1 %.not20, label %54, label %55

54:                                               ; preds = %52
  switch i32 %25, label %.loopexit [
    i32 -5, label %.backedge.backedge
    i32 0, label %.backedge.backedge
    i32 1, label %.loopexit22
    i32 -2, label %.loopexit26
    i32 -6, label %zerr_to_string.exit.loopexit71
    i32 2, label %zerr_to_string.exit
    i32 -3, label %.loopexit25
  ]

.backedge.backedge:                               ; preds = %54, %54
  br label %.backedge

55:                                               ; preds = %zlib_post_call.exit, %52
  switch i32 %25, label %.loopexit [
    i32 -5, label %.loopexit22
    i32 0, label %.loopexit22
    i32 1, label %.loopexit22
    i32 -2, label %.loopexit26
    i32 -6, label %zerr_to_string.exit
    i32 2, label %.loopexit24
    i32 -3, label %.loopexit25
  ]

.loopexit24:                                      ; preds = %55
  br label %zerr_to_string.exit

.loopexit25:                                      ; preds = %54, %55
  br label %zerr_to_string.exit

.loopexit26:                                      ; preds = %54, %55
  br label %zerr_to_string.exit

.loopexit:                                        ; preds = %54, %55
  br label %zerr_to_string.exit

zerr_to_string.exit.loopexit71:                   ; preds = %54
  br label %zerr_to_string.exit

zerr_to_string.exit:                              ; preds = %54, %zerr_to_string.exit.loopexit71, %55, %.loopexit24, %.loopexit25, %.loopexit26, %.loopexit
  %.0.i = phi ptr [ @.str.19, %.loopexit ], [ @.str.18, %.loopexit26 ], [ @.str.17, %.loopexit25 ], [ @.str.15, %55 ], [ @.str.16, %.loopexit24 ], [ @.str.15, %zerr_to_string.exit.loopexit71 ], [ @.str.16, %54 ]
  %56 = getelementptr inbounds nuw i8, ptr %0, i64 48
  %57 = load ptr, ptr %56, align 8, !tbaa !25
  %.not21 = icmp eq ptr %57, null
  %spec.select = select i1 %.not21, ptr @.str.2, ptr %57
  %58 = tail call i32 (ptr, ...) @error(ptr noundef nonnull @.str.6, ptr noundef nonnull %.0.i, ptr noundef nonnull %spec.select) #6
  br label %.loopexit22

.loopexit22:                                      ; preds = %54, %55, %55, %55, %zerr_to_string.exit
  ret i32 %25
}